target datalayout = "e-m:e-p270:32:32-p271:32:32-p272:64:64-i64:64-i128:128-f80:128-n8:16:32:64-S128"
target triple = "x86_64-pc-linux-gnu"

%struct.CrxBandParam = type { %struct.CrxBitstream, i16, i16, i32, i32, i16, ptr, ptr, ptr, i32, i32, ptr, ptr, i8 }
%struct.CrxBitstream = type { [65536 x i8], i64, i64, i32, i32, i32, i32, ptr }
%struct.CrxImage = type { i8, i16, i16, i8, i8, i8, i8, i8, i8, i8, i8, ptr, i64, i64, [4 x ptr], ptr, ptr, %class.libraw_memmgr }
%class.libraw_memmgr = type <{ ptr, i32, [4 x i8] }>

@_ZTI17LibRaw_exceptions = linkonce_odr constant { ptr, ptr } { ptr getelementptr inbounds (ptr, ptr @_ZTVN10__cxxabiv116__enum_type_infoE, i64 2), ptr @_ZTS17LibRaw_exceptions }, comdat, align 8

; Function Attrs: mustprogress uwtable
define linkonce_odr void @_ZN13libraw_memmgr7mem_ptrEPv(ptr noundef nonnull align 8 dereferenceable(12) %0, ptr noundef %1) #0 comdat align 2 {
  %3 = alloca ptr, align 8
  %4 = alloca ptr, align 8
  %5 = alloca i32, align 4
  %6 = alloca i32, align 4
  store ptr %0, ptr %3, align 8, !tbaa !159
  store ptr %1, ptr %4, align 8, !tbaa !162
  %7 = load ptr, ptr %3, align 8
  %8 = load ptr, ptr %4, align 8, !tbaa !162
  %9 = icmp ne ptr %8, null
  br i1 %9, label %10, label %49

10:                                               ; preds = %2
  call void @llvm.lifetime.start.p0(i64 4, ptr %5) #19
  store i32 0, ptr %5, align 4, !tbaa !20
  br label %11

11:                                               ; preds = %31, %10
  %12 = load i32, ptr %5, align 4, !tbaa !20
  %13 = icmp slt i32 %12, 511
  br i1 %13, label %15, label %14

14:                                               ; preds = %11
  store i32 2, ptr %6, align 4
  br label %34

15:                                               ; preds = %11
  %16 = getelementptr inbounds nuw %class.libraw_memmgr, ptr %7, i32 0, i32 0
  %17 = load ptr, ptr %16, align 8, !tbaa !252
  %18 = load i32, ptr %5, align 4, !tbaa !20
  %19 = sext i32 %18 to i64
  %20 = getelementptr inbounds ptr, ptr %17, i64 %19
  %21 = load ptr, ptr %20, align 8, !tbaa !162
  %22 = icmp ne ptr %21, null
  br i1 %22, label %30, label %23

23:                                               ; preds = %15
  %24 = load ptr, ptr %4, align 8, !tbaa !162
  %25 = getelementptr inbounds nuw %class.libraw_memmgr, ptr %7, i32 0, i32 0
  %26 = load ptr, ptr %25, align 8, !tbaa !252
  %27 = load i32, ptr %5, align 4, !tbaa !20
  %28 = sext i32 %27 to i64
  %29 = getelementptr inbounds ptr, ptr %26, i64 %28
  store ptr %24, ptr %29, align 8, !tbaa !162
  store i32 1, ptr %6, align 4
  br label %34

30:                                               ; preds = %15
  br label %31

31:                                               ; preds = %30
  %32 = load i32, ptr %5, align 4, !tbaa !20
  %33 = add nsw i32 %32, 1
  store i32 %33, ptr %5, align 4, !tbaa !20
  br label %11, !llvm.loop !325

34:                                               ; preds = %23, %14
  call void @llvm.lifetime.end.p0(i64 4, ptr %5) #19
  %35 = load i32, ptr %6, align 4
  switch i32 %35, label %50 [
    i32 2, label %36
    i32 1, label %49
  ]

36:                                               ; preds = %34
  %37 = getelementptr inbounds nuw %class.libraw_memmgr, ptr %7, i32 0, i32 0
  %38 = load ptr, ptr %37, align 8, !tbaa !252
  %39 = getelementptr inbounds ptr, ptr %38, i64 511
  %40 = load ptr, ptr %39, align 8, !tbaa !162
  %41 = icmp ne ptr %40, null
  br i1 %41, label %47, label %42

42:                                               ; preds = %36
  %43 = load ptr, ptr %4, align 8, !tbaa !162
  %44 = getelementptr inbounds nuw %class.libraw_memmgr, ptr %7, i32 0, i32 0
  %45 = load ptr, ptr %44, align 8, !tbaa !252
  %46 = getelementptr inbounds ptr, ptr %45, i64 511
  store ptr %43, ptr %46, align 8, !tbaa !162
  br label %47

47:                                               ; preds = %42, %36
  %48 = call ptr @__cxa_allocate_exception(i64 4) #19
  store i32 11, ptr %48, align 16, !tbaa !168
  call void @__cxa_throw(ptr %48, ptr @_ZTI17LibRaw_exceptions, ptr null) #21
  unreachable

49:                                               ; preds = %34, %2
  ret void

50:                                               ; preds = %34
  unreachable
}

; Function Attrs: inlinehint mustprogress uwtable
define internal void @_ZL13crxFillBufferP12CrxBitstream(ptr noundef %0) #8 {
  %2 = alloca ptr, align 8
  store ptr %0, ptr %2, align 8, !tbaa !29
  %3 = load ptr, ptr %2, align 8, !tbaa !29
  %4 = getelementptr inbounds nuw %struct.CrxBitstream, ptr %3, i32 0, i32 3
  %5 = load i32, ptr %4, align 8, !tbaa !33
  %6 = load ptr, ptr %2, align 8, !tbaa !29
  %7 = getelementptr inbounds nuw %struct.CrxBitstream, ptr %6, i32 0, i32 4
  %8 = load i32, ptr %7, align 4, !tbaa !34
  %9 = icmp uge i32 %5, %8
  br i1 %9, label %10, label %87

10:                                               ; preds = %1
  %11 = load ptr, ptr %2, align 8, !tbaa !29
  %12 = getelementptr inbounds nuw %struct.CrxBitstream, ptr %11, i32 0, i32 1
  %13 = load i64, ptr %12, align 8, !tbaa !163
  %14 = icmp ne i64 %13, 0
  br i1 %14, label %15, label %87

15:                                               ; preds = %10
  %16 = load ptr, ptr %2, align 8, !tbaa !29
  %17 = getelementptr inbounds nuw %struct.CrxBitstream, ptr %16, i32 0, i32 3
  store i32 0, ptr %17, align 8, !tbaa !33
  %18 = load ptr, ptr %2, align 8, !tbaa !29
  %19 = getelementptr inbounds nuw %struct.CrxBitstream, ptr %18, i32 0, i32 4
  %20 = load i32, ptr %19, align 4, !tbaa !34
  %21 = zext i32 %20 to i64
  %22 = load ptr, ptr %2, align 8, !tbaa !29
  %23 = getelementptr inbounds nuw %struct.CrxBitstream, ptr %22, i32 0, i32 2
  %24 = load i64, ptr %23, align 8, !tbaa !164
  %25 = add i64 %24, %21
  store i64 %25, ptr %23, align 8, !tbaa !164
  %26 = load ptr, ptr %2, align 8, !tbaa !29
  %27 = getelementptr inbounds nuw %struct.CrxBitstream, ptr %26, i32 0, i32 7
  %28 = load ptr, ptr %27, align 8, !tbaa !165
  %29 = load ptr, ptr %28, align 8, !tbaa !166
  %30 = getelementptr inbounds ptr, ptr %29, i64 13
  %31 = load ptr, ptr %30, align 8
  %32 = call noundef i32 %31(ptr noundef nonnull align 8 dereferenceable(8) %28)
  %33 = load ptr, ptr %2, align 8, !tbaa !29
  %34 = getelementptr inbounds nuw %struct.CrxBitstream, ptr %33, i32 0, i32 7
  %35 = load ptr, ptr %34, align 8, !tbaa !165
  %36 = load ptr, ptr %2, align 8, !tbaa !29
  %37 = getelementptr inbounds nuw %struct.CrxBitstream, ptr %36, i32 0, i32 2
  %38 = load i64, ptr %37, align 8, !tbaa !164
  %39 = load ptr, ptr %35, align 8, !tbaa !166
  %40 = getelementptr inbounds ptr, ptr %39, i64 4
  %41 = load ptr, ptr %40, align 8
  %42 = call noundef i32 %41(ptr noundef nonnull align 8 dereferenceable(8) %35, i64 noundef %38, i32 noundef 0)
  %43 = load ptr, ptr %2, align 8, !tbaa !29
  %44 = getelementptr inbounds nuw %struct.CrxBitstream, ptr %43, i32 0, i32 7
  %45 = load ptr, ptr %44, align 8, !tbaa !165
  %46 = load ptr, ptr %2, align 8, !tbaa !29
  %47 = getelementptr inbounds nuw %struct.CrxBitstream, ptr %46, i32 0, i32 0
  %48 = getelementptr inbounds [65536 x i8], ptr %47, i64 0, i64 0
  %49 = load ptr, ptr %2, align 8, !tbaa !29
  %50 = getelementptr inbounds nuw %struct.CrxBitstream, ptr %49, i32 0, i32 1
  %51 = load i64, ptr %50, align 8, !tbaa !163
  %52 = icmp ult i64 %51, 65536
  br i1 %52, label %53, label %57

53:                                               ; preds = %15
  %54 = load ptr, ptr %2, align 8, !tbaa !29
  %55 = getelementptr inbounds nuw %struct.CrxBitstream, ptr %54, i32 0, i32 1
  %56 = load i64, ptr %55, align 8, !tbaa !163
  br label %58

57:                                               ; preds = %15
  br label %58

58:                                               ; preds = %57, %53
  %59 = phi i64 [ %56, %53 ], [ 65536, %57 ]
  %60 = load ptr, ptr %45, align 8, !tbaa !166
  %61 = getelementptr inbounds ptr, ptr %60, i64 3
  %62 = load ptr, ptr %61, align 8
  %63 = call noundef i32 %62(ptr noundef nonnull align 8 dereferenceable(8) %45, ptr noundef %48, i64 noundef 1, i64 noundef %59)
  %64 = load ptr, ptr %2, align 8, !tbaa !29
  %65 = getelementptr inbounds nuw %struct.CrxBitstream, ptr %64, i32 0, i32 4
  store i32 %63, ptr %65, align 4, !tbaa !34
  %66 = load ptr, ptr %2, align 8, !tbaa !29
  %67 = getelementptr inbounds nuw %struct.CrxBitstream, ptr %66, i32 0, i32 7
  %68 = load ptr, ptr %67, align 8, !tbaa !165
  %69 = load ptr, ptr %68, align 8, !tbaa !166
  %70 = getelementptr inbounds ptr, ptr %69, i64 14
  %71 = load ptr, ptr %70, align 8
  call void %71(ptr noundef nonnull align 8 dereferenceable(8) %68)
  %72 = load ptr, ptr %2, align 8, !tbaa !29
  %73 = getelementptr inbounds nuw %struct.CrxBitstream, ptr %72, i32 0, i32 4
  %74 = load i32, ptr %73, align 4, !tbaa !34
  %75 = icmp ult i32 %74, 1
  br i1 %75, label %76, label %78

76:                                               ; preds = %58
  %77 = call ptr @__cxa_allocate_exception(i64 4) #19
  store i32 4, ptr %77, align 16, !tbaa !168
  call void @__cxa_throw(ptr %77, ptr @_ZTI17LibRaw_exceptions, ptr null) #21
  unreachable

78:                                               ; preds = %58
  %79 = load ptr, ptr %2, align 8, !tbaa !29
  %80 = getelementptr inbounds nuw %struct.CrxBitstream, ptr %79, i32 0, i32 4
  %81 = load i32, ptr %80, align 4, !tbaa !34
  %82 = zext i32 %81 to i64
  %83 = load ptr, ptr %2, align 8, !tbaa !29
  %84 = getelementptr inbounds nuw %struct.CrxBitstream, ptr %83, i32 0, i32 1
  %85 = load i64, ptr %84, align 8, !tbaa !163
  %86 = sub i64 %85, %82
  store i64 %86, ptr %84, align 8, !tbaa !163
  br label %87

87:                                               ; preds = %78, %10, %1
  ret void
}

; Function Attrs: mustprogress uwtable
define linkonce_odr noundef ptr @_ZN13libraw_memmgr6callocEmm(ptr noundef nonnull align 8 dereferenceable(12) %0, i64 noundef %1, i64 noundef %2) #0 comdat align 2 {
  %4 = alloca ptr, align 8
  %5 = alloca i64, align 8
  %6 = alloca i64, align 8
  %7 = alloca ptr, align 8
  store ptr %0, ptr %4, align 8, !tbaa !159
  store i64 %1, ptr %5, align 8, !tbaa !45
  store i64 %2, ptr %6, align 8, !tbaa !45
  %8 = load ptr, ptr %4, align 8
  call void @llvm.lifetime.start.p0(i64 8, ptr %7) #19
  %9 = load i64, ptr %5, align 8, !tbaa !45
  %10 = getelementptr inbounds nuw %class.libraw_memmgr, ptr %8, i32 0, i32 1
  %11 = load i32, ptr %10, align 8, !tbaa !161
  %12 = zext i32 %11 to i64
  %13 = load i64, ptr %6, align 8, !tbaa !45
  %14 = add i64 %12, %13
  %15 = sub i64 %14, 1
  %16 = load i64, ptr %6, align 8, !tbaa !45
  %17 = icmp ne i64 %16, 0
  br i1 %17, label %18, label %20

18:                                               ; preds = %3
  %19 = load i64, ptr %6, align 8, !tbaa !45
  br label %21

20:                                               ; preds = %3
  br label %21

21:                                               ; preds = %20, %18
  %22 = phi i64 [ %19, %18 ], [ 1, %20 ]
  %23 = udiv i64 %15, %22
  %24 = add i64 %9, %23
  %25 = load i64, ptr %6, align 8, !tbaa !45
  %26 = call noalias ptr @calloc(i64 noundef %24, i64 noundef %25) #20
  store ptr %26, ptr %7, align 8, !tbaa !162
  %27 = load ptr, ptr %7, align 8, !tbaa !162
  call void @_ZN13libraw_memmgr7mem_ptrEPv(ptr noundef nonnull align 8 dereferenceable(12) %8, ptr noundef %27)
  %28 = load ptr, ptr %7, align 8, !tbaa !162
  call void @llvm.lifetime.end.p0(i64 8, ptr %7) #19
  ret ptr %28
}

; Function Attrs: mustprogress uwtable
define noundef i32 @_Z12crxParamInitP8CrxImagePP12CrxBandParammmjjbj(ptr noundef %0, ptr noundef %1, i64 noundef %2, i64 noundef %3, i32 noundef %4, i32 noundef %5, i1 noundef zeroext %6, i32 noundef %7) #0 {
  %9 = alloca i32, align 4
  %10 = alloca ptr, align 8
  %11 = alloca ptr, align 8
  %12 = alloca i64, align 8
  %13 = alloca i64, align 8
  %14 = alloca i32, align 4
  %15 = alloca i32, align 4
  %16 = alloca i8, align 1
  %17 = alloca i32, align 4
  %18 = alloca i32, align 4
  %19 = alloca i32, align 4
  %20 = alloca ptr, align 8
  %21 = alloca i32, align 4
  store ptr %0, ptr %10, align 8, !tbaa !125
  store ptr %1, ptr %11, align 8, !tbaa !148
  store i64 %2, ptr %12, align 8, !tbaa !45
  store i64 %3, ptr %13, align 8, !tbaa !45
  store i32 %4, ptr %14, align 4, !tbaa !20
  store i32 %5, ptr %15, align 4, !tbaa !20
  %22 = zext i1 %6 to i8
  store i8 %22, ptr %16, align 1, !tbaa !150
  store i32 %7, ptr %17, align 4, !tbaa !20
  call void @llvm.lifetime.start.p0(i64 4, ptr %18) #19
  %23 = load i8, ptr %16, align 1, !tbaa !150, !range !62, !noundef !63
  %24 = trunc i8 %23 to i1
  br i1 %24, label %25, label %26

25:                                               ; preds = %8
  br label %30

26:                                               ; preds = %8
  %27 = load i32, ptr %14, align 4, !tbaa !20
  %28 = zext i32 %27 to i64
  %29 = mul i64 4, %28
  br label %30

30:                                               ; preds = %26, %25
  %31 = phi i64 [ 0, %25 ], [ %29, %26 ]
  %32 = trunc i64 %31 to i32
  store i32 %32, ptr %18, align 4, !tbaa !20
  call void @llvm.lifetime.start.p0(i64 4, ptr %19) #19
  %33 = load i32, ptr %14, align 4, !tbaa !20
  %34 = mul i32 2, %33
  %35 = add i32 %34, 4
  store i32 %35, ptr %19, align 4, !tbaa !20
  call void @llvm.lifetime.start.p0(i64 8, ptr %20) #19
  store ptr null, ptr %20, align 8, !tbaa !57
  %36 = load ptr, ptr %10, align 8, !tbaa !125
  %37 = getelementptr inbounds nuw %struct.CrxImage, ptr %36, i32 0, i32 17
  %38 = load i32, ptr %19, align 4, !tbaa !20
  %39 = sext i32 %38 to i64
  %40 = mul i64 4, %39
  %41 = add i64 65648, %40
  %42 = load i32, ptr %18, align 4, !tbaa !20
  %43 = sext i32 %42 to i64
  %44 = add i64 %41, %43
  %45 = call noundef ptr @_ZN13libraw_memmgr6callocEmm(ptr noundef nonnull align 8 dereferenceable(12) %37, i64 noundef 1, i64 noundef %44)
  store ptr %45, ptr %20, align 8, !tbaa !57
  %46 = load ptr, ptr %20, align 8, !tbaa !57
  %47 = icmp ne ptr %46, null
  br i1 %47, label %49, label %48

48:                                               ; preds = %30
  store i32 -1, ptr %9, align 4
  store i32 1, ptr %21, align 4
  br label %136

49:                                               ; preds = %30
  %50 = load ptr, ptr %20, align 8, !tbaa !57
  %51 = load ptr, ptr %11, align 8, !tbaa !148
  store ptr %50, ptr %51, align 8, !tbaa !6
  %52 = load ptr, ptr %20, align 8, !tbaa !57
  %53 = getelementptr inbounds nuw i8, ptr %52, i64 65648
  store ptr %53, ptr %20, align 8, !tbaa !57
  %54 = load ptr, ptr %20, align 8, !tbaa !57
  %55 = load ptr, ptr %11, align 8, !tbaa !148
  %56 = load ptr, ptr %55, align 8, !tbaa !6
  %57 = getelementptr inbounds nuw %struct.CrxBandParam, ptr %56, i32 0, i32 11
  store ptr %54, ptr %57, align 8, !tbaa !64
  %58 = load i32, ptr %18, align 4, !tbaa !20
  %59 = icmp ne i32 %58, 0
  br i1 %59, label %60, label %68

60:                                               ; preds = %49
  %61 = load ptr, ptr %11, align 8, !tbaa !148
  %62 = load ptr, ptr %61, align 8, !tbaa !6
  %63 = getelementptr inbounds nuw %struct.CrxBandParam, ptr %62, i32 0, i32 11
  %64 = load ptr, ptr %63, align 8, !tbaa !64
  %65 = load i32, ptr %19, align 4, !tbaa !20
  %66 = sext i32 %65 to i64
  %67 = getelementptr inbounds i32, ptr %64, i64 %66
  br label %69

68:                                               ; preds = %49
  br label %69

69:                                               ; preds = %68, %60
  %70 = phi ptr [ %67, %60 ], [ null, %68 ]
  %71 = load ptr, ptr %11, align 8, !tbaa !148
  %72 = load ptr, ptr %71, align 8, !tbaa !6
  %73 = getelementptr inbounds nuw %struct.CrxBandParam, ptr %72, i32 0, i32 12
  store ptr %70, ptr %73, align 8, !tbaa !67
  %74 = load i32, ptr %14, align 4, !tbaa !20
  %75 = trunc i32 %74 to i16
  %76 = load ptr, ptr %11, align 8, !tbaa !148
  %77 = load ptr, ptr %76, align 8, !tbaa !6
  %78 = getelementptr inbounds nuw %struct.CrxBandParam, ptr %77, i32 0, i32 1
  store i16 %75, ptr %78, align 8, !tbaa !11
  %79 = load i32, ptr %15, align 4, !tbaa !20
  %80 = trunc i32 %79 to i16
  %81 = load ptr, ptr %11, align 8, !tbaa !148
  %82 = load ptr, ptr %81, align 8, !tbaa !6
  %83 = getelementptr inbounds nuw %struct.CrxBandParam, ptr %82, i32 0, i32 2
  store i16 %80, ptr %83, align 2, !tbaa !60
  %84 = load ptr, ptr %11, align 8, !tbaa !148
  %85 = load ptr, ptr %84, align 8, !tbaa !6
  %86 = getelementptr inbounds nuw %struct.CrxBandParam, ptr %85, i32 0, i32 4
  store i32 0, ptr %86, align 8, !tbaa !41
  %87 = load ptr, ptr %11, align 8, !tbaa !148
  %88 = load ptr, ptr %87, align 8, !tbaa !6
  %89 = getelementptr inbounds nuw %struct.CrxBandParam, ptr %88, i32 0, i32 5
  store i16 0, ptr %89, align 4, !tbaa !59
  %90 = load i32, ptr %17, align 4, !tbaa !20
  %91 = load ptr, ptr %11, align 8, !tbaa !148
  %92 = load ptr, ptr %91, align 8, !tbaa !6
  %93 = getelementptr inbounds nuw %struct.CrxBandParam, ptr %92, i32 0, i32 3
  store i32 %90, ptr %93, align 4, !tbaa !37
  %94 = load i8, ptr %16, align 1, !tbaa !150, !range !62, !noundef !63
  %95 = trunc i8 %94 to i1
  %96 = load ptr, ptr %11, align 8, !tbaa !148
  %97 = load ptr, ptr %96, align 8, !tbaa !6
  %98 = getelementptr inbounds nuw %struct.CrxBandParam, ptr %97, i32 0, i32 13
  %99 = zext i1 %95 to i8
  store i8 %99, ptr %98, align 8, !tbaa !61
  %100 = load ptr, ptr %11, align 8, !tbaa !148
  %101 = load ptr, ptr %100, align 8, !tbaa !6
  %102 = getelementptr inbounds nuw %struct.CrxBandParam, ptr %101, i32 0, i32 0
  %103 = getelementptr inbounds nuw %struct.CrxBitstream, ptr %102, i32 0, i32 5
  store i32 0, ptr %103, align 8, !tbaa !151
  %104 = load ptr, ptr %11, align 8, !tbaa !148
  %105 = load ptr, ptr %104, align 8, !tbaa !6
  %106 = getelementptr inbounds nuw %struct.CrxBandParam, ptr %105, i32 0, i32 0
  %107 = getelementptr inbounds nuw %struct.CrxBitstream, ptr %106, i32 0, i32 6
  store i32 0, ptr %107, align 4, !tbaa !152
  %108 = load i64, ptr %13, align 8, !tbaa !45
  %109 = load ptr, ptr %11, align 8, !tbaa !148
  %110 = load ptr, ptr %109, align 8, !tbaa !6
  %111 = getelementptr inbounds nuw %struct.CrxBandParam, ptr %110, i32 0, i32 0
  %112 = getelementptr inbounds nuw %struct.CrxBitstream, ptr %111, i32 0, i32 1
  store i64 %108, ptr %112, align 8, !tbaa !153
  %113 = load ptr, ptr %11, align 8, !tbaa !148
  %114 = load ptr, ptr %113, align 8, !tbaa !6
  %115 = getelementptr inbounds nuw %struct.CrxBandParam, ptr %114, i32 0, i32 0
  %116 = getelementptr inbounds nuw %struct.CrxBitstream, ptr %115, i32 0, i32 3
  store i32 0, ptr %116, align 8, !tbaa !154
  %117 = load ptr, ptr %11, align 8, !tbaa !148
  %118 = load ptr, ptr %117, align 8, !tbaa !6
  %119 = getelementptr inbounds nuw %struct.CrxBandParam, ptr %118, i32 0, i32 0
  %120 = getelementptr inbounds nuw %struct.CrxBitstream, ptr %119, i32 0, i32 4
  store i32 0, ptr %120, align 4, !tbaa !155
  %121 = load i64, ptr %12, align 8, !tbaa !45
  %122 = load ptr, ptr %11, align 8, !tbaa !148
  %123 = load ptr, ptr %122, align 8, !tbaa !6
  %124 = getelementptr inbounds nuw %struct.CrxBandParam, ptr %123, i32 0, i32 0
  %125 = getelementptr inbounds nuw %struct.CrxBitstream, ptr %124, i32 0, i32 2
  store i64 %121, ptr %125, align 8, !tbaa !156
  %126 = load ptr, ptr %10, align 8, !tbaa !125
  %127 = getelementptr inbounds nuw %struct.CrxImage, ptr %126, i32 0, i32 16
  %128 = load ptr, ptr %127, align 8, !tbaa !157
  %129 = load ptr, ptr %11, align 8, !tbaa !148
  %130 = load ptr, ptr %129, align 8, !tbaa !6
  %131 = getelementptr inbounds nuw %struct.CrxBandParam, ptr %130, i32 0, i32 0
  %132 = getelementptr inbounds nuw %struct.CrxBitstream, ptr %131, i32 0, i32 7
  store ptr %128, ptr %132, align 8, !tbaa !158
  %133 = load ptr, ptr %11, align 8, !tbaa !148
  %134 = load ptr, ptr %133, align 8, !tbaa !6
  %135 = getelementptr inbounds nuw %struct.CrxBandParam, ptr %134, i32 0, i32 0
  call void @_ZL13crxFillBufferP12CrxBitstream(ptr noundef %135)
  store i32 0, ptr %9, align 4
  store i32 1, ptr %21, align 4
  br label %136

136:                                              ; preds = %69, %48
  call void @llvm.lifetime.end.p0(i64 8, ptr %20) #19
  call void @llvm.lifetime.end.p0(i64 4, ptr %19) #19
  call void @llvm.lifetime.end.p0(i64 4, ptr %18) #19
  %137 = load i32, ptr %9, align 4
  ret i32 %137
}