; Function Attrs: mustprogress uwtable
define noundef range(i32 -1, 1) i32 @_Z12crxParamInitP8CrxImagePP12CrxBandParammmjjbj(ptr noundef readonly captures(none) %0, ptr noundef writeonly captures(none) %1, i64 noundef %2, i64 noundef %3, i32 noundef %4, i32 noundef %5, i1 noundef zeroext %6, i32 noundef %7) local_unnamed_addr #0 {
  %9 = zext i1 %6 to i8
  %10 = shl i32 %4, 2
  %11 = select i1 %6, i32 0, i32 %10
  %12 = shl i32 %4, 1
  %13 = add i32 %12, 4
  %14 = sext i32 %13 to i64
  %15 = shl nsw i64 %14, 2
  %16 = add nsw i64 %15, 65648
  %17 = sext i32 %11 to i64
  %18 = add nsw i64 %16, %17
  %19 = getelementptr inbounds nuw i8, ptr %0, i64 96
  %20 = load i32, ptr %19, align 8, !tbaa !141
  %21 = zext i32 %20 to i64
  %22 = add nsw i64 %18, -1
  %23 = add nsw i64 %22, %21
  %24 = tail call i64 @llvm.umax.i64(i64 %18, i64 1)
  %25 = udiv i64 %23, %24
  %26 = add i64 %25, 1
  %27 = tail call noalias ptr @calloc(i64 noundef %26, i64 noundef %18) #23
  %.not.i.i = icmp eq ptr %27, null
  br i1 %.not.i.i, label %_ZL13crxFillBufferP12CrxBitstream.exit, label %.preheader.i.i

.preheader.i.i:                                   ; preds = %8
  %28 = getelementptr inbounds nuw i8, ptr %0, i64 88
  %29 = load ptr, ptr %28, align 8, !tbaa !142
  br label %31

30:                                               ; preds = %31
  %indvars.iv.next.i.i = add nuw nsw i64 %indvars.iv.i.i, 1
  %exitcond.not.i.i = icmp eq i64 %indvars.iv.next.i.i, 511
  br i1 %exitcond.not.i.i, label %34, label %31, !llvm.loop !143

31:                                               ; preds = %30, %.preheader.i.i
  %indvars.iv.i.i = phi i64 [ 0, %.preheader.i.i ], [ %indvars.iv.next.i.i, %30 ]
  %32 = getelementptr inbounds nuw ptr, ptr %29, i64 %indvars.iv.i.i
  %33 = load ptr, ptr %32, align 8, !tbaa !144
  %.not10.i.i = icmp eq ptr %33, null
  br i1 %.not10.i.i, label %_ZN13libraw_memmgr6callocEmm.exit, label %30

34:                                               ; preds = %30
  %35 = getelementptr inbounds nuw i8, ptr %29, i64 4088
  %36 = load ptr, ptr %35, align 8, !tbaa !144
  %.not11.i.i = icmp eq ptr %36, null
  br i1 %.not11.i.i, label %37, label %38

37:                                               ; preds = %34
  store ptr %27, ptr %35, align 8, !tbaa !144
  br label %38

38:                                               ; preds = %37, %34
  %39 = tail call ptr @__cxa_allocate_exception(i64 4) #21
  store i32 11, ptr %39, align 16, !tbaa !30
  tail call void @__cxa_throw(ptr nonnull %39, ptr nonnull @_ZTI17LibRaw_exceptions, ptr null) #22
  unreachable

_ZN13libraw_memmgr6callocEmm.exit:                ; preds = %31
  %40 = getelementptr inbounds nuw ptr, ptr %29, i64 %indvars.iv.i.i
  store ptr %27, ptr %40, align 8, !tbaa !144
  store ptr %27, ptr %1, align 8, !tbaa !145
  %41 = getelementptr inbounds nuw i8, ptr %27, i64 65648
  %42 = getelementptr inbounds nuw i8, ptr %27, i64 65624
  store ptr %41, ptr %42, align 8, !tbaa !64
  %.not38 = icmp eq i32 %11, 0
  %43 = getelementptr inbounds i32, ptr %41, i64 %14
  %spec.select = select i1 %.not38, ptr null, ptr %43
  %44 = getelementptr inbounds nuw i8, ptr %27, i64 65632
  store ptr %spec.select, ptr %44, align 8, !tbaa !65
  %45 = trunc i32 %4 to i16
  %46 = getelementptr inbounds nuw i8, ptr %27, i64 65576
  store i16 %45, ptr %46, align 8, !tbaa !6
  %47 = trunc i32 %5 to i16
  %48 = getelementptr inbounds nuw i8, ptr %27, i64 65578
  store i16 %47, ptr %48, align 2, !tbaa !60
  %49 = getelementptr inbounds nuw i8, ptr %27, i64 65580
  store i32 %7, ptr %49, align 4, !tbaa !42
  %50 = getelementptr inbounds nuw i8, ptr %27, i64 65640
  store i8 %9, ptr %50, align 8, !tbaa !61
  %51 = getelementptr inbounds nuw i8, ptr %27, i64 65536
  store i64 %3, ptr %51, align 8, !tbaa !146
  %52 = getelementptr inbounds nuw i8, ptr %27, i64 65544
  store i64 %2, ptr %52, align 8, !tbaa !147
  %53 = getelementptr inbounds nuw i8, ptr %0, i64 80
  %54 = load ptr, ptr %53, align 8, !tbaa !148
  %55 = getelementptr inbounds nuw i8, ptr %27, i64 65568
  store ptr %54, ptr %55, align 8, !tbaa !149
  %.not19.i = icmp eq i64 %3, 0
  br i1 %.not19.i, label %_ZL13crxFillBufferP12CrxBitstream.exit, label %56

56:                                               ; preds = %_ZN13libraw_memmgr6callocEmm.exit
  %57 = getelementptr inbounds nuw i8, ptr %27, i64 65556
  %58 = getelementptr inbounds nuw i8, ptr %27, i64 65552
  store i32 0, ptr %58, align 8, !tbaa !24
  %59 = load ptr, ptr %54, align 8, !tbaa !28
  %60 = getelementptr inbounds nuw i8, ptr %59, i64 104
  %61 = load ptr, ptr %60, align 8
  %62 = tail call noundef i32 %61(ptr noundef nonnull align 8 dereferenceable(8) %54)
  %63 = load ptr, ptr %55, align 8, !tbaa !27
  %64 = load i64, ptr %52, align 8, !tbaa !26
  %65 = load ptr, ptr %63, align 8, !tbaa !28
  %66 = getelementptr inbounds nuw i8, ptr %65, i64 32
  %67 = load ptr, ptr %66, align 8
  %68 = tail call noundef i32 %67(ptr noundef nonnull align 8 dereferenceable(8) %63, i64 noundef %64, i32 noundef 0)
  %69 = load ptr, ptr %55, align 8, !tbaa !27
  %70 = load i64, ptr %51, align 8, !tbaa !25
  %spec.select.i = tail call i64 @llvm.umin.i64(i64 %70, i64 65536)
  %71 = load ptr, ptr %69, align 8, !tbaa !28
  %72 = getelementptr inbounds nuw i8, ptr %71, i64 24
  %73 = load ptr, ptr %72, align 8
  %74 = tail call noundef i32 %73(ptr noundef nonnull align 8 dereferenceable(8) %69, ptr noundef nonnull %27, i64 noundef 1, i64 noundef %spec.select.i)
  store i32 %74, ptr %57, align 4, !tbaa !23
  %75 = load ptr, ptr %55, align 8, !tbaa !27
  %76 = load ptr, ptr %75, align 8, !tbaa !28
  %77 = getelementptr inbounds nuw i8, ptr %76, i64 112
  %78 = load ptr, ptr %77, align 8
  tail call void %78(ptr noundef nonnull align 8 dereferenceable(8) %75)
  %79 = load i32, ptr %57, align 4, !tbaa !23
  %80 = icmp eq i32 %79, 0
  br i1 %80, label %81, label %83

81:                                               ; preds = %56
  %82 = tail call ptr @__cxa_allocate_exception(i64 4) #21
  store i32 4, ptr %82, align 16, !tbaa !30
  tail call void @__cxa_throw(ptr nonnull %82, ptr nonnull @_ZTI17LibRaw_exceptions, ptr null) #22
  unreachable

83:                                               ; preds = %56
  %84 = zext i32 %79 to i64
  %85 = load i64, ptr %51, align 8, !tbaa !25
  %86 = sub i64 %85, %84
  store i64 %86, ptr %51, align 8, !tbaa !25
  br label %_ZL13crxFillBufferP12CrxBitstream.exit

_ZL13crxFillBufferP12CrxBitstream.exit:           ; preds = %8, %83, %_ZN13libraw_memmgr6callocEmm.exit
  %.0 = phi i32 [ 0, %_ZN13libraw_memmgr6callocEmm.exit ], [ 0, %83 ], [ -1, %8 ]
  ret i32 %.0
}